; Function Attrs: mustprogress nounwind uwtable
define dso_local void @_ZNK5clang29UserDefinedConversionSequence4dumpEv(ptr nocapture noundef nonnull readonly align 8 dereferenceable(136) %0) local_unnamed_addr #4 align 2 {
  %2 = tail call noundef nonnull align 8 dereferenceable(96) ptr @_ZN4llvm4errsEv() #26
  %3 = load i64, ptr %0, align 8
  %4 = and i64 %3, 4278255615
  %or.cond11 = icmp eq i64 %4, 0
  br i1 %or.cond11, label %_ZN4llvm11raw_ostreamlsEPKc.exit, label %5

5:                                                ; preds = %1
  tail call void @_ZNK5clang26StandardConversionSequence4dumpEv(ptr noundef nonnull align 8 dereferenceable(56) %0)
  %6 = getelementptr inbounds nuw i8, ptr %2, i64 24
  %7 = load ptr, ptr %6, align 8
  %8 = getelementptr inbounds nuw i8, ptr %2, i64 32
  %9 = load ptr, ptr %8, align 8
  %10 = ptrtoint ptr %7 to i64
  %11 = ptrtoint ptr %9 to i64
  %12 = sub i64 %10, %11
  %13 = icmp ult i64 %12, 4
  br i1 %13, label %14, label %16

14:                                               ; preds = %5
  %15 = tail call noundef nonnull align 8 dereferenceable(48) ptr @_ZN4llvm11raw_ostream5writeEPKcm(ptr noundef nonnull align 8 dereferenceable(48) %2, ptr noundef nonnull @.str, i64 noundef 4) #26
  br label %_ZN4llvm11raw_ostreamlsEPKc.exit

16:                                               ; preds = %5
  store i32 540945696, ptr %9, align 1
  %17 = load ptr, ptr %8, align 8
  %18 = getelementptr inbounds i8, ptr %17, i64 4
  store ptr %18, ptr %8, align 8
  br label %_ZN4llvm11raw_ostreamlsEPKc.exit

_ZN4llvm11raw_ostreamlsEPKc.exit:                 ; preds = %16, %14, %1
  %19 = getelementptr inbounds nuw i8, ptr %0, i64 120
  %20 = load ptr, ptr %19, align 8
  %.not7 = icmp eq ptr %20, null
  br i1 %.not7, label %39, label %21

21:                                               ; preds = %_ZN4llvm11raw_ostreamlsEPKc.exit
  %22 = getelementptr inbounds nuw i8, ptr %2, i64 32
  %23 = load ptr, ptr %22, align 8
  %24 = getelementptr inbounds nuw i8, ptr %2, i64 24
  %25 = load ptr, ptr %24, align 8
  %.not.i = icmp ult ptr %23, %25
  br i1 %.not.i, label %28, label %26

26:                                               ; preds = %21
  %27 = tail call noundef nonnull align 8 dereferenceable(48) ptr @_ZN4llvm11raw_ostream5writeEh(ptr noundef nonnull align 8 dereferenceable(48) %2, i8 noundef zeroext 39) #26
  br label %_ZN4llvm11raw_ostreamlsEc.exit

28:                                               ; preds = %21
  %29 = getelementptr inbounds i8, ptr %23, i64 1
  store ptr %29, ptr %22, align 8
  store i8 39, ptr %23, align 1
  br label %_ZN4llvm11raw_ostreamlsEc.exit

_ZN4llvm11raw_ostreamlsEc.exit:                   ; preds = %26, %28
  %.0.i = phi ptr [ %27, %26 ], [ %2, %28 ]
  %30 = load ptr, ptr %19, align 8
  tail call void @_ZNK5clang9NamedDecl9printNameERN4llvm11raw_ostreamE(ptr noundef nonnull align 8 dereferenceable(48) %30, ptr noundef nonnull align 8 dereferenceable(48) %.0.i) #26
  %31 = getelementptr inbounds nuw i8, ptr %.0.i, i64 32
  %32 = load ptr, ptr %31, align 8
  %33 = getelementptr inbounds nuw i8, ptr %.0.i, i64 24
  %34 = load ptr, ptr %33, align 8
  %.not.i14 = icmp ult ptr %32, %34
  br i1 %.not.i14, label %37, label %35

35:                                               ; preds = %_ZN4llvm11raw_ostreamlsEc.exit
  %36 = tail call noundef nonnull align 8 dereferenceable(48) ptr @_ZN4llvm11raw_ostream5writeEh(ptr noundef nonnull align 8 dereferenceable(48) %.0.i, i8 noundef zeroext 39) #26
  br label %_ZN4llvm11raw_ostreamlsEc.exit16

37:                                               ; preds = %_ZN4llvm11raw_ostreamlsEc.exit
  %38 = getelementptr inbounds i8, ptr %32, i64 1
  store ptr %38, ptr %31, align 8
  store i8 39, ptr %32, align 1
  br label %_ZN4llvm11raw_ostreamlsEc.exit16

39:                                               ; preds = %_ZN4llvm11raw_ostreamlsEPKc.exit
  %40 = getelementptr inbounds nuw i8, ptr %2, i64 24
  %41 = load ptr, ptr %40, align 8
  %42 = getelementptr inbounds nuw i8, ptr %2, i64 32
  %43 = load ptr, ptr %42, align 8
  %44 = ptrtoint ptr %41 to i64
  %45 = ptrtoint ptr %43 to i64
  %46 = sub i64 %44, %45
  %47 = icmp ult i64 %46, 24
  br i1 %47, label %48, label %50

48:                                               ; preds = %39
  %49 = tail call noundef nonnull align 8 dereferenceable(48) ptr @_ZN4llvm11raw_ostream5writeEPKcm(ptr noundef nonnull align 8 dereferenceable(48) %2, ptr noundef nonnull @.str.5, i64 noundef 24) #26
  br label %_ZN4llvm11raw_ostreamlsEc.exit16

50:                                               ; preds = %39
  tail call void @llvm.memcpy.p0.p0.i64(ptr noundef nonnull align 1 dereferenceable(24) %43, ptr noundef nonnull align 1 dereferenceable(24) @.str.5, i64 24, i1 false)
  %51 = load ptr, ptr %42, align 8
  %52 = getelementptr inbounds i8, ptr %51, i64 24
  store ptr %52, ptr %42, align 8
  br label %_ZN4llvm11raw_ostreamlsEc.exit16

_ZN4llvm11raw_ostreamlsEc.exit16:                 ; preds = %50, %48, %37, %35
  %53 = getelementptr inbounds nuw i8, ptr %0, i64 64
  %54 = load i64, ptr %53, align 8
  %55 = and i64 %54, 4278255615
  %or.cond13 = icmp eq i64 %55, 0
  br i1 %or.cond13, label %70, label %56

56:                                               ; preds = %_ZN4llvm11raw_ostreamlsEc.exit16
  %57 = getelementptr inbounds nuw i8, ptr %2, i64 24
  %58 = load ptr, ptr %57, align 8
  %59 = getelementptr inbounds nuw i8, ptr %2, i64 32
  %60 = load ptr, ptr %59, align 8
  %61 = ptrtoint ptr %58 to i64
  %62 = ptrtoint ptr %60 to i64
  %63 = sub i64 %61, %62
  %64 = icmp ult i64 %63, 4
  br i1 %64, label %65, label %67

65:                                               ; preds = %56
  %66 = tail call noundef nonnull align 8 dereferenceable(48) ptr @_ZN4llvm11raw_ostream5writeEPKcm(ptr noundef nonnull align 8 dereferenceable(48) %2, ptr noundef nonnull @.str, i64 noundef 4) #26
  br label %_ZN4llvm11raw_ostreamlsEPKc.exit22

67:                                               ; preds = %56
  store i32 540945696, ptr %60, align 1
  %68 = load ptr, ptr %59, align 8
  %69 = getelementptr inbounds i8, ptr %68, i64 4
  store ptr %69, ptr %59, align 8
  br label %_ZN4llvm11raw_ostreamlsEPKc.exit22

_ZN4llvm11raw_ostreamlsEPKc.exit22:               ; preds = %65, %67
  tail call void @_ZNK5clang26StandardConversionSequence4dumpEv(ptr noundef nonnull align 8 dereferenceable(56) %53)
  br label %70

70:                                               ; preds = %_ZN4llvm11raw_ostreamlsEc.exit16, %_ZN4llvm11raw_ostreamlsEPKc.exit22
  ret void
}